; Function Attrs: nounwind uwtable
define internal fastcc i32 @ftp_nb_type(ptr noundef %0, ptr noundef %1, i1 noundef zeroext %2, i8 noundef zeroext range(i8 19, 23) %3) unnamed_addr #0 {
  %5 = select i1 %2, i8 65, i8 73
  %6 = getelementptr inbounds nuw i8, ptr %1, i64 1272
  %7 = load i8, ptr %6, align 8, !tbaa !221
  %8 = icmp eq i8 %7, %5
  br i1 %8, label %9, label %46

9:                                                ; preds = %4
  %10 = getelementptr inbounds nuw i8, ptr %0, i64 24
  %11 = load ptr, ptr %10, align 8, !tbaa !107
  %12 = getelementptr inbounds nuw i8, ptr %11, i64 1326
  %13 = load i8, ptr %12, align 2, !tbaa !138
  %14 = icmp ne i8 %13, %3
  %15 = icmp ne ptr %0, null
  %or.cond4.i = and i1 %15, %14
  br i1 %or.cond4.i, label %16, label %_ftp_state.exit

16:                                               ; preds = %9
  %17 = getelementptr inbounds nuw i8, ptr %0, i64 2562
  %18 = load i64, ptr %17, align 2
  %19 = and i64 %18, 134217728
  %.not.i = icmp eq i64 %19, 0
  br i1 %.not.i, label %_ftp_state.exit, label %20

20:                                               ; preds = %16
  %21 = getelementptr inbounds nuw i8, ptr %0, i64 4712
  %22 = load ptr, ptr %21, align 8, !tbaa !104
  %.not20.i = icmp eq ptr %22, null
  br i1 %.not20.i, label %29, label %23

23:                                               ; preds = %20
  %24 = getelementptr inbounds nuw i8, ptr %22, i64 8
  %25 = load i32, ptr %24, align 8, !tbaa !105
  %26 = icmp sgt i32 %25, 0
  %27 = load i32, ptr getelementptr inbounds nuw (i8, ptr @Curl_trc_feat_ftp, i64 8), align 8
  %28 = icmp sgt i32 %27, 0
  %or.cond.i = select i1 %26, i1 %28, i1 false
  br i1 %or.cond.i, label %30, label %_ftp_state.exit

29:                                               ; preds = %20
  %.old.i = load i32, ptr getelementptr inbounds nuw (i8, ptr @Curl_trc_feat_ftp, i64 8), align 8, !tbaa !105
  %.old1.i = icmp sgt i32 %.old.i, 0
  br i1 %.old1.i, label %30, label %_ftp_state.exit

30:                                               ; preds = %29, %23
  %31 = zext i8 %13 to i64
  %32 = getelementptr inbounds nuw [35 x ptr], ptr @ftp_state_names, i64 0, i64 %31
  %33 = load ptr, ptr %32, align 8, !tbaa !8
  %34 = zext nneg i8 %3 to i64
  %35 = getelementptr inbounds nuw [35 x ptr], ptr @ftp_state_names, i64 0, i64 %34
  %36 = load ptr, ptr %35, align 8, !tbaa !8
  tail call void (ptr, ptr, ...) @Curl_trc_ftp(ptr noundef nonnull %0, ptr noundef nonnull @.str.7, ptr noundef %33, ptr noundef %36) #10
  br label %_ftp_state.exit

_ftp_state.exit:                                  ; preds = %9, %16, %23, %29, %30
  store i8 %3, ptr %12, align 2, !tbaa !138
  switch i8 %3, label %default.unreachable26 [
    i8 19, label %37
    i8 20, label %40
    i8 21, label %42
    i8 22, label %44
  ]

37:                                               ; preds = %_ftp_state.exit
  %38 = load ptr, ptr %10, align 8, !tbaa !107
  %39 = tail call fastcc i32 @ftp_state_size(ptr noundef nonnull %0, ptr noundef %38)
  br label %ftp_state_type_resp.exit

40:                                               ; preds = %_ftp_state.exit
  %41 = tail call fastcc i32 @ftp_state_list(ptr noundef nonnull %0)
  br label %ftp_state_type_resp.exit

42:                                               ; preds = %_ftp_state.exit
  %43 = tail call fastcc i32 @ftp_state_quote(ptr noundef nonnull %0, i1 noundef zeroext true, i8 noundef zeroext 13)
  br label %ftp_state_type_resp.exit

44:                                               ; preds = %_ftp_state.exit
  %45 = tail call fastcc i32 @ftp_state_stor_prequote(ptr noundef nonnull %0)
  br label %ftp_state_type_resp.exit

46:                                               ; preds = %4
  %47 = zext nneg i8 %5 to i32
  %48 = getelementptr inbounds nuw i8, ptr %1, i64 1056
  %49 = tail call i32 (ptr, ptr, ptr, ...) @Curl_pp_sendf(ptr noundef %0, ptr noundef nonnull %48, ptr noundef nonnull @.str.87, i32 noundef %47) #10
  %.not = icmp eq i32 %49, 0
  br i1 %.not, label %50, label %ftp_state_type_resp.exit

50:                                               ; preds = %46
  %51 = getelementptr inbounds nuw i8, ptr %0, i64 24
  %52 = load ptr, ptr %51, align 8, !tbaa !107
  %53 = getelementptr inbounds nuw i8, ptr %52, i64 1326
  %54 = load i8, ptr %53, align 2, !tbaa !138
  %55 = icmp ne i8 %54, %3
  %56 = icmp ne ptr %0, null
  %or.cond4.i19 = and i1 %56, %55
  br i1 %or.cond4.i19, label %57, label %_ftp_state.exit25

57:                                               ; preds = %50
  %58 = getelementptr inbounds nuw i8, ptr %0, i64 2562
  %59 = load i64, ptr %58, align 2
  %60 = and i64 %59, 134217728
  %.not.i20 = icmp eq i64 %60, 0
  br i1 %.not.i20, label %_ftp_state.exit25, label %61

61:                                               ; preds = %57
  %62 = getelementptr inbounds nuw i8, ptr %0, i64 4712
  %63 = load ptr, ptr %62, align 8, !tbaa !104
  %.not20.i21 = icmp eq ptr %63, null
  br i1 %.not20.i21, label %70, label %64

64:                                               ; preds = %61
  %65 = getelementptr inbounds nuw i8, ptr %63, i64 8
  %66 = load i32, ptr %65, align 8, !tbaa !105
  %67 = icmp sgt i32 %66, 0
  %68 = load i32, ptr getelementptr inbounds nuw (i8, ptr @Curl_trc_feat_ftp, i64 8), align 8
  %69 = icmp sgt i32 %68, 0
  %or.cond.i22 = select i1 %67, i1 %69, i1 false
  br i1 %or.cond.i22, label %71, label %_ftp_state.exit25

70:                                               ; preds = %61
  %.old.i23 = load i32, ptr getelementptr inbounds nuw (i8, ptr @Curl_trc_feat_ftp, i64 8), align 8, !tbaa !105
  %.old1.i24 = icmp sgt i32 %.old.i23, 0
  br i1 %.old1.i24, label %71, label %_ftp_state.exit25

71:                                               ; preds = %70, %64
  %72 = zext i8 %54 to i64
  %73 = getelementptr inbounds nuw [35 x ptr], ptr @ftp_state_names, i64 0, i64 %72
  %74 = load ptr, ptr %73, align 8, !tbaa !8
  %75 = zext nneg i8 %3 to i64
  %76 = getelementptr inbounds nuw [35 x ptr], ptr @ftp_state_names, i64 0, i64 %75
  %77 = load ptr, ptr %76, align 8, !tbaa !8
  tail call void (ptr, ptr, ...) @Curl_trc_ftp(ptr noundef nonnull %0, ptr noundef nonnull @.str.7, ptr noundef %74, ptr noundef %77) #10
  br label %_ftp_state.exit25

_ftp_state.exit25:                                ; preds = %50, %57, %64, %70, %71
  store i8 %3, ptr %53, align 2, !tbaa !138
  store i8 %5, ptr %6, align 8, !tbaa !221
  br label %ftp_state_type_resp.exit

default.unreachable26:                            ; preds = %_ftp_state.exit
  unreachable

ftp_state_type_resp.exit:                         ; preds = %44, %42, %40, %37, %46, %_ftp_state.exit25
  %.0 = phi i32 [ 0, %_ftp_state.exit25 ], [ %49, %46 ], [ %39, %37 ], [ %41, %40 ], [ %43, %42 ], [ %45, %44 ]
  ret i32 %.0
}